unit AnoSeguiPorUnorProgAcaoFontRel;

interface

uses
  Windows, Messages, SysUtils, Classes, Graphics,
  Controls, Forms, Dialogs, StdCtrls, DB, QRPDFFilter, ADODB, QuickRpt,
  QRCtrls, jpeg, ExtCtrls;
type
  TFrmAnoSeguiPorUnorProgAcaoFontRel=class(TForm)
    report: TQuickRep;
    PageHeaderBand1: TQRBand;
    QRLabel3: TQRLabel;
    QRLabel7: TQRLabel;
    QRSysData1: TQRSysData;
    QRShape2: TQRShape;
    QRLabel6: TQRLabel;
    QRImage1: TQRImage;
    QRLabel1: TQRLabel;
    QRLabel4: TQRLabel;
    QRGroup3: TQRGroup;
    QRDBText2: TQRDBText;
    QRDBText3: TQRDBText;
    QRDBText9: TQRDBText;
    QRLabel11: TQRLabel;
    qryUnorc: TADOQuery;
    QRPDFFilter2: TQRPDFFilter;
    DataSource1: TDataSource;
    QRPDFFilter1: TQRPDFFilter;
    qrySumUnorc: TADOQuery;
    qrySumUnorcValorUnorc: TBCDField;
    QRSubDetail2: TQRSubDetail;
    QRDBText1: TQRDBText;
    QRDBText4: TQRDBText;
    QRDBText6: TQRDBText;
    QRGroup1: TQRGroup;
    QRDBText10: TQRDBText;
    QRDBText11: TQRDBText;
    QRLabel12: TQRLabel;
    QRGroup2: TQRGroup;
    QRDBText5: TQRDBText;
    QRDBText7: TQRDBText;
    QRLabel15: TQRLabel;
    QRShape5: TQRShape;
    QRLabel8: TQRLabel;
    QRLabel18: TQRLabel;
    QRLabel19: TQRLabel;
    QRLabel20: TQRLabel;
    QRLabel9: TQRLabel;
    QRDBText8: TQRDBText;
    QRDBText13: TQRDBText;
    qryUnorcunorc: TStringField;
    qryUnorcUnorcD: TStringField;
    qryUnorcprograma: TStringField;
    qryUnorcprogramaD: TStringField;
    qryUnorcvalorPrograma: TBCDField;
    qryUnorcacao: TStringField;
    qryUnorcAcaoD: TStringField;
    qryUnorcvalorAcao: TBCDField;
    qryUnorcfonte: TStringField;
    qryUnorcfontD: TStringField;
    qryUnorcvalorFonte: TBCDField;
    qryUnorcvalor: TBCDField;
    QRLabel2: TQRLabel;
    QRLabel10: TQRLabel;
    QRLabel13: TQRLabel;
    QRLabel14: TQRLabel;
    QRSysData2: TQRSysData;
    procedure FormCreate(Sender : TObject);
    procedure QRGroup3BeforePrint(Sender : TObject);
    procedure QRGroup1BeforePrint(Sender : TObject);
    procedure QRGroup2BeforePrint(Sender : TObject);
    procedure QRSubDetail2BeforePrint(Sender : TObject);
    procedure _PROC_005DC849(Sender : TObject);
  private
    { Private declarations }
  public
    { Public declarations }
  end ;

var
  FrmAnoSeguiPorUnorProgAcaoFontRel: TFrmAnoSeguiPorUnorProgAcaoFontRel;

{This file is generated by DeDe Ver 3.50.04 Copyright (c) 1999-2002 DaFixer}

implementation

{$R *.DFM}

procedure TFrmAnoSeguiPorUnorProgAcaoFontRel.FormCreate(Sender : TObject);
begin
(*
005DC73C   53                     push    ebx
005DC73D   8BD8                   mov     ebx, eax

* Reference to control TFrmAnoSeguiPorUnorProgAcaoFontRel.qryUnorc : TADOQuery
|
005DC73F   8B832C030000           mov     eax, [ebx+$032C]

* Reference to: DB.Proc_004C6A64
|
005DC745   E81AA3EEFF             call    004C6A64

* Reference to control TFrmAnoSeguiPorUnorProgAcaoFontRel.qrySumUnorc : TADOQuery
|
005DC74A   8B833C030000           mov     eax, [ebx+$033C]

* Reference to: DB.Proc_004C6A64
|
005DC750   E80FA3EEFF             call    004C6A64
005DC755   5B                     pop     ebx
005DC756   C3                     ret

*)
end;

procedure TFrmAnoSeguiPorUnorProgAcaoFontRel.QRGroup3BeforePrint(Sender : TObject);
begin
(*
005DC758   53                     push    ebx
005DC759   8BD8                   mov     ebx, eax

* Reference to control TFrmAnoSeguiPorUnorProgAcaoFontRel.qrySumUnorcValorUnorc : TBCDField
|
005DC75B   8B8340030000           mov     eax, [ebx+$0340]
005DC761   8B10                   mov     edx, [eax]

* Possible reference to virtual method TBCDField.OFFS_4C
|
005DC763   FF524C                 call    dword ptr [edx+$4C]
005DC766   D81D90C75D00           fcomp   dword ptr [$005DC790]
005DC76C   DFE0                   fstsw   ax
005DC76E   9E                     sahf
005DC76F   750F                   jnz     005DC780
005DC771   B201                   mov     dl, $01

* Reference to control TFrmAnoSeguiPorUnorProgAcaoFontRel.QRLabel2 : TQRLabel
|
005DC773   8B83C4030000           mov     eax, [ebx+$03C4]
005DC779   8B08                   mov     ecx, [eax]

* Possible reference to virtual method TQRLabel.OFFS_64
|
005DC77B   FF5164                 call    dword ptr [ecx+$64]
005DC77E   5B                     pop     ebx
005DC77F   C3                     ret

005DC780   33D2                   xor     edx, edx
005DC782   8B83C4030000           mov     eax, [ebx+$03C4]
005DC788   8B08                   mov     ecx, [eax]
005DC78A   FF5164                 call    dword ptr [ecx+$64]
005DC78D   5B                     pop     ebx
005DC78E   C3                     ret

*)
end;

procedure TFrmAnoSeguiPorUnorProgAcaoFontRel.QRGroup1BeforePrint(Sender : TObject);
begin
(*
005DC794   53                     push    ebx
005DC795   8BD8                   mov     ebx, eax

* Reference to control TFrmAnoSeguiPorUnorProgAcaoFontRel.qryUnorcvalorPrograma : TBCDField
|
005DC797   8B83A4030000           mov     eax, [ebx+$03A4]
005DC79D   8B10                   mov     edx, [eax]

* Possible reference to virtual method TBCDField.OFFS_4C
|
005DC79F   FF524C                 call    dword ptr [edx+$4C]
005DC7A2   D81DCCC75D00           fcomp   dword ptr [$005DC7CC]
005DC7A8   DFE0                   fstsw   ax
005DC7AA   9E                     sahf
005DC7AB   750F                   jnz     005DC7BC
005DC7AD   B201                   mov     dl, $01

* Reference to control TFrmAnoSeguiPorUnorProgAcaoFontRel.QRLabel10 : TQRLabel
|
005DC7AF   8B83C8030000           mov     eax, [ebx+$03C8]
005DC7B5   8B08                   mov     ecx, [eax]

* Possible reference to virtual method TQRLabel.OFFS_64
|
005DC7B7   FF5164                 call    dword ptr [ecx+$64]
005DC7BA   5B                     pop     ebx
005DC7BB   C3                     ret

005DC7BC   33D2                   xor     edx, edx
005DC7BE   8B83C8030000           mov     eax, [ebx+$03C8]
005DC7C4   8B08                   mov     ecx, [eax]
005DC7C6   FF5164                 call    dword ptr [ecx+$64]
005DC7C9   5B                     pop     ebx
005DC7CA   C3                     ret

*)
end;

procedure TFrmAnoSeguiPorUnorProgAcaoFontRel.QRGroup2BeforePrint(Sender : TObject);
begin
(*
005DC7D0   53                     push    ebx
005DC7D1   8BD8                   mov     ebx, eax

* Reference to control TFrmAnoSeguiPorUnorProgAcaoFontRel.qryUnorcvalorAcao : TBCDField
|
005DC7D3   8B83B0030000           mov     eax, [ebx+$03B0]
005DC7D9   8B10                   mov     edx, [eax]

* Possible reference to virtual method TBCDField.OFFS_4C
|
005DC7DB   FF524C                 call    dword ptr [edx+$4C]
005DC7DE   D81D08C85D00           fcomp   dword ptr [$005DC808]
005DC7E4   DFE0                   fstsw   ax
005DC7E6   9E                     sahf
005DC7E7   750F                   jnz     005DC7F8
005DC7E9   B201                   mov     dl, $01

* Reference to control TFrmAnoSeguiPorUnorProgAcaoFontRel.QRLabel13 : TQRLabel
|
005DC7EB   8B83CC030000           mov     eax, [ebx+$03CC]
005DC7F1   8B08                   mov     ecx, [eax]

* Possible reference to virtual method TQRLabel.OFFS_64
|
005DC7F3   FF5164                 call    dword ptr [ecx+$64]
005DC7F6   5B                     pop     ebx
005DC7F7   C3                     ret

005DC7F8   33D2                   xor     edx, edx
005DC7FA   8B83CC030000           mov     eax, [ebx+$03CC]
005DC800   8B08                   mov     ecx, [eax]
005DC802   FF5164                 call    dword ptr [ecx+$64]
005DC805   5B                     pop     ebx
005DC806   C3                     ret

*)
end;

procedure TFrmAnoSeguiPorUnorProgAcaoFontRel.QRSubDetail2BeforePrint(Sender : TObject);
begin
(*
005DC80C   53                     push    ebx
005DC80D   8BD8                   mov     ebx, eax

* Reference to control TFrmAnoSeguiPorUnorProgAcaoFontRel.qryUnorcvalorFonte : TBCDField
|
005DC80F   8B83BC030000           mov     eax, [ebx+$03BC]
005DC815   8B10                   mov     edx, [eax]

* Possible reference to virtual method TBCDField.OFFS_4C
|
005DC817   FF524C                 call    dword ptr [edx+$4C]
005DC81A   D81D44C85D00           fcomp   dword ptr [$005DC844]
005DC820   DFE0                   fstsw   ax
005DC822   9E                     sahf
005DC823   750F                   jnz     005DC834
005DC825   B201                   mov     dl, $01

* Reference to control TFrmAnoSeguiPorUnorProgAcaoFontRel.QRLabel14 : TQRLabel
|
005DC827   8B83D0030000           mov     eax, [ebx+$03D0]
005DC82D   8B08                   mov     ecx, [eax]

* Possible reference to virtual method TQRLabel.OFFS_64
|
005DC82F   FF5164                 call    dword ptr [ecx+$64]
005DC832   5B                     pop     ebx
005DC833   C3                     ret

005DC834   33D2                   xor     edx, edx
005DC836   8B83D0030000           mov     eax, [ebx+$03D0]
005DC83C   8B08                   mov     ecx, [eax]
005DC83E   FF5164                 call    dword ptr [ecx+$64]
005DC841   5B                     pop     ebx
005DC842   C3                     ret

*)
end;

procedure TFrmAnoSeguiPorUnorProgAcaoFontRel._PROC_005DC849(Sender : TObject);
begin
(*
005DC849   8BEC                   mov     ebp, esp
005DC84B   33C0                   xor     eax, eax
005DC84D   55                     push    ebp

* Possible String Reference to: 'é¶wâÿëø]Ã‹Àƒ-Ð,a'
|
005DC84E   686DC85D00             push    $005DC86D

***** TRY
|
005DC853   64FF30                 push    dword ptr fs:[eax]
005DC856   648920                 mov     fs:[eax], esp
005DC859   FF05D02C6100           inc     dword ptr [$00612CD0]
005DC85F   33C0                   xor     eax, eax
005DC861   5A                     pop     edx
005DC862   59                     pop     ecx
005DC863   59                     pop     ecx
005DC864   648910                 mov     fs:[eax], edx

****** FINALLY
|

* Possible String Reference to: ']Ã‹Àƒ-Ð,a'
|
005DC867   6874C85D00             push    $005DC874
005DC86C   C3                     ret


* Reference to: System.Proc_00404028
|
005DC86D   E9B677E2FF             jmp     00404028
005DC872   EBF8                   jmp     005DC86C

****** END
|
005DC874   5D                     pop     ebp
005DC875   C3                     ret

*)
end;



end.